target datalayout = "e-m:e-p270:32:32-p271:32:32-p272:64:64-i64:64-i128:128-f80:128-n8:16:32:64-S128"
target triple = "x86_64-pc-linux-gnu"

%struct.png_struct_def = type { [1 x %struct.__jmp_buf_tag], ptr, ptr, i64, ptr, ptr, ptr, ptr, ptr, ptr, ptr, ptr, ptr, i8, i8, i32, i32, i32, i32, %struct.z_stream_s, ptr, i32, i32, i32, i32, i32, i32, i32, i32, i32, i32, i32, i32, i32, i32, i32, i32, i32, i32, i32, i32, i32, i64, i32, i32, i32, ptr, ptr, ptr, ptr, i64, i32, i32, ptr, i16, i32, i16, i8, i8, i8, i8, i8, i8, i8, i8, i8, i8, i8, i8, i8, i8, i8, i16, i8, i32, %struct.png_color_16_struct, %struct.png_color_16_struct, ptr, i32, i32, %struct.png_xy, i32, i32, i32, i32, i32, ptr, ptr, ptr, ptr, ptr, ptr, %struct.png_color_8_struct, %struct.png_color_8_struct, ptr, %struct.png_color_16_struct, ptr, ptr, ptr, ptr, ptr, ptr, ptr, ptr, ptr, i32, i32, i64, i64, i64, i64, i32, i32, ptr, ptr, i32, [29 x i8], i32, ptr, ptr, i32, i32, ptr, i8, i8, i16, i16, ptr, i32, i8, ptr, ptr, ptr, ptr, ptr, ptr, ptr, i8, i32, i32, i32, i64, %struct.png_unknown_chunk_t, i64, ptr, i64, i32, i32, ptr, [4 x ptr] }
%struct.__jmp_buf_tag = type { [8 x i64], i32, %struct.__sigset_t }
%struct.__sigset_t = type { [16 x i64] }
%struct.z_stream_s = type { ptr, i32, i64, ptr, i32, i64, ptr, ptr, ptr, ptr, ptr, i32, i64, i64 }
%struct.png_xy = type { i32, i32, i32, i32, i32, i32, i32, i32 }
%struct.png_color_8_struct = type { i8, i8, i8, i8, i8 }
%struct.png_color_16_struct = type { i8, i16, i16, i16, i16 }
%struct.png_unknown_chunk_t = type { [5 x i8], ptr, i64, i8 }

@.str.25 = private unnamed_addr constant [33 x i8] c"Invalid background palette index\00", align 1
@.str.26 = private unnamed_addr constant [64 x i8] c"Ignoring attempt to write 16-bit bKGD chunk when bit_depth is 8\00", align 1
@.str.27 = private unnamed_addr constant [64 x i8] c"Ignoring attempt to write bKGD chunk out-of-range for bit_depth\00", align 1

; Function Attrs: nounwind uwtable
define void @png_save_uint_16(ptr noundef %0, i32 noundef %1) #0 {
  %3 = alloca ptr, align 8
  %4 = alloca i32, align 4
  store ptr %0, ptr %3, align 8, !tbaa !3
  store i32 %1, ptr %4, align 4, !tbaa !8
  %5 = load i32, ptr %4, align 4, !tbaa !8
  %6 = lshr i32 %5, 8
  %7 = and i32 %6, 255
  %8 = trunc i32 %7 to i8
  %9 = load ptr, ptr %3, align 8, !tbaa !3
  %10 = getelementptr inbounds i8, ptr %9, i64 0
  store i8 %8, ptr %10, align 1, !tbaa !10
  %11 = load i32, ptr %4, align 4, !tbaa !8
  %12 = and i32 %11, 255
  %13 = trunc i32 %12 to i8
  %14 = load ptr, ptr %3, align 8, !tbaa !3
  %15 = getelementptr inbounds i8, ptr %14, i64 1
  store i8 %13, ptr %15, align 1, !tbaa !10
  ret void
}

; Function Attrs: nounwind uwtable
define void @png_write_bKGD(ptr noalias noundef %0, ptr noundef %1, i32 noundef %2) #0 {
  %4 = alloca ptr, align 8
  %5 = alloca ptr, align 8
  %6 = alloca i32, align 4
  %7 = alloca [6 x i8], align 1
  %8 = alloca i32, align 4
  store ptr %0, ptr %4, align 8, !tbaa !11
  store ptr %1, ptr %5, align 8, !tbaa !127
  store i32 %2, ptr %6, align 4, !tbaa !8
  call void @llvm.lifetime.start.p0(i64 6, ptr %7) #7
  %9 = load i32, ptr %6, align 4, !tbaa !8
  %10 = icmp eq i32 %9, 3
  br i1 %10, label %11, label %42

11:                                               ; preds = %3
  %12 = load ptr, ptr %4, align 8, !tbaa !11
  %13 = getelementptr inbounds nuw %struct.png_struct_def, ptr %12, i32 0, i32 54
  %14 = load i16, ptr %13, align 8, !tbaa !55
  %15 = zext i16 %14 to i32
  %16 = icmp ne i32 %15, 0
  br i1 %16, label %23, label %17

17:                                               ; preds = %11
  %18 = load ptr, ptr %4, align 8, !tbaa !11
  %19 = getelementptr inbounds nuw %struct.png_struct_def, ptr %18, i32 0, i32 128
  %20 = load i32, ptr %19, align 8, !tbaa !40
  %21 = and i32 %20, 1
  %22 = icmp eq i32 %21, 0
  br i1 %22, label %23, label %35

23:                                               ; preds = %17, %11
  %24 = load ptr, ptr %5, align 8, !tbaa !127
  %25 = getelementptr inbounds nuw %struct.png_color_16_struct, ptr %24, i32 0, i32 0
  %26 = load i8, ptr %25, align 2, !tbaa !133
  %27 = zext i8 %26 to i32
  %28 = load ptr, ptr %4, align 8, !tbaa !11
  %29 = getelementptr inbounds nuw %struct.png_struct_def, ptr %28, i32 0, i32 54
  %30 = load i16, ptr %29, align 8, !tbaa !55
  %31 = zext i16 %30 to i32
  %32 = icmp sge i32 %27, %31
  br i1 %32, label %33, label %35

33:                                               ; preds = %23
  %34 = load ptr, ptr %4, align 8, !tbaa !11
  call void @png_warning(ptr noundef %34, ptr noundef @.str.25)
  store i32 1, ptr %8, align 4
  br label %110

35:                                               ; preds = %23, %17
  %36 = load ptr, ptr %5, align 8, !tbaa !127
  %37 = getelementptr inbounds nuw %struct.png_color_16_struct, ptr %36, i32 0, i32 0
  %38 = load i8, ptr %37, align 2, !tbaa !133
  %39 = getelementptr inbounds [6 x i8], ptr %7, i64 0, i64 0
  store i8 %38, ptr %39, align 1, !tbaa !10
  %40 = load ptr, ptr %4, align 8, !tbaa !11
  %41 = getelementptr inbounds [6 x i8], ptr %7, i64 0, i64 0
  call void @png_write_complete_chunk(ptr noundef %40, i32 noundef 1649100612, ptr noundef %41, i64 noundef 1)
  br label %109

42:                                               ; preds = %3
  %43 = load i32, ptr %6, align 4, !tbaa !8
  %44 = and i32 %43, 2
  %45 = icmp ne i32 %44, 0
  br i1 %45, label %46, label %87

46:                                               ; preds = %42
  %47 = getelementptr inbounds [6 x i8], ptr %7, i64 0, i64 0
  %48 = load ptr, ptr %5, align 8, !tbaa !127
  %49 = getelementptr inbounds nuw %struct.png_color_16_struct, ptr %48, i32 0, i32 1
  %50 = load i16, ptr %49, align 2, !tbaa !130
  %51 = zext i16 %50 to i32
  call void @png_save_uint_16(ptr noundef %47, i32 noundef %51)
  %52 = getelementptr inbounds [6 x i8], ptr %7, i64 0, i64 0
  %53 = getelementptr inbounds i8, ptr %52, i64 2
  %54 = load ptr, ptr %5, align 8, !tbaa !127
  %55 = getelementptr inbounds nuw %struct.png_color_16_struct, ptr %54, i32 0, i32 2
  %56 = load i16, ptr %55, align 2, !tbaa !131
  %57 = zext i16 %56 to i32
  call void @png_save_uint_16(ptr noundef %53, i32 noundef %57)
  %58 = getelementptr inbounds [6 x i8], ptr %7, i64 0, i64 0
  %59 = getelementptr inbounds i8, ptr %58, i64 4
  %60 = load ptr, ptr %5, align 8, !tbaa !127
  %61 = getelementptr inbounds nuw %struct.png_color_16_struct, ptr %60, i32 0, i32 3
  %62 = load i16, ptr %61, align 2, !tbaa !132
  %63 = zext i16 %62 to i32
  call void @png_save_uint_16(ptr noundef %59, i32 noundef %63)
  %64 = load ptr, ptr %4, align 8, !tbaa !11
  %65 = getelementptr inbounds nuw %struct.png_struct_def, ptr %64, i32 0, i32 63
  %66 = load i8, ptr %65, align 8, !tbaa !41
  %67 = zext i8 %66 to i32
  %68 = icmp eq i32 %67, 8
  br i1 %68, label %69, label %84

69:                                               ; preds = %46
  %70 = getelementptr inbounds [6 x i8], ptr %7, i64 0, i64 0
  %71 = load i8, ptr %70, align 1, !tbaa !10
  %72 = zext i8 %71 to i32
  %73 = getelementptr inbounds [6 x i8], ptr %7, i64 0, i64 2
  %74 = load i8, ptr %73, align 1, !tbaa !10
  %75 = zext i8 %74 to i32
  %76 = or i32 %72, %75
  %77 = getelementptr inbounds [6 x i8], ptr %7, i64 0, i64 4
  %78 = load i8, ptr %77, align 1, !tbaa !10
  %79 = zext i8 %78 to i32
  %80 = or i32 %76, %79
  %81 = icmp ne i32 %80, 0
  br i1 %81, label %82, label %84

82:                                               ; preds = %69
  %83 = load ptr, ptr %4, align 8, !tbaa !11
  call void @png_warning(ptr noundef %83, ptr noundef @.str.26)
  store i32 1, ptr %8, align 4
  br label %110

84:                                               ; preds = %69, %46
  %85 = load ptr, ptr %4, align 8, !tbaa !11
  %86 = getelementptr inbounds [6 x i8], ptr %7, i64 0, i64 0
  call void @png_write_complete_chunk(ptr noundef %85, i32 noundef 1649100612, ptr noundef %86, i64 noundef 6)
  br label %108

87:                                               ; preds = %42
  %88 = load ptr, ptr %5, align 8, !tbaa !127
  %89 = getelementptr inbounds nuw %struct.png_color_16_struct, ptr %88, i32 0, i32 4
  %90 = load i16, ptr %89, align 2, !tbaa !129
  %91 = zext i16 %90 to i32
  %92 = load ptr, ptr %4, align 8, !tbaa !11
  %93 = getelementptr inbounds nuw %struct.png_struct_def, ptr %92, i32 0, i32 63
  %94 = load i8, ptr %93, align 8, !tbaa !41
  %95 = zext i8 %94 to i32
  %96 = shl i32 1, %95
  %97 = icmp sge i32 %91, %96
  br i1 %97, label %98, label %100

98:                                               ; preds = %87
  %99 = load ptr, ptr %4, align 8, !tbaa !11
  call void @png_warning(ptr noundef %99, ptr noundef @.str.27)
  store i32 1, ptr %8, align 4
  br label %110

100:                                              ; preds = %87
  %101 = getelementptr inbounds [6 x i8], ptr %7, i64 0, i64 0
  %102 = load ptr, ptr %5, align 8, !tbaa !127
  %103 = getelementptr inbounds nuw %struct.png_color_16_struct, ptr %102, i32 0, i32 4
  %104 = load i16, ptr %103, align 2, !tbaa !129
  %105 = zext i16 %104 to i32
  call void @png_save_uint_16(ptr noundef %101, i32 noundef %105)
  %106 = load ptr, ptr %4, align 8, !tbaa !11
  %107 = getelementptr inbounds [6 x i8], ptr %7, i64 0, i64 0
  call void @png_write_complete_chunk(ptr noundef %106, i32 noundef 1649100612, ptr noundef %107, i64 noundef 2)
  br label %108

108:                                              ; preds = %100, %84
  br label %109

109:                                              ; preds = %108, %35
  store i32 0, ptr %8, align 4
  br label %110

110:                                              ; preds = %109, %98, %82, %33
  call void @llvm.lifetime.end.p0(i64 6, ptr %7) #7
  %111 = load i32, ptr %8, align 4
  switch i32 %111, label %113 [
    i32 0, label %112
    i32 1, label %112
  ]

112:                                              ; preds = %110, %110
  ret void

113:                                              ; preds = %110
  unreachable
}