; Function Attrs: nounwind uwtable
define void @png_write_bKGD(ptr noalias noundef %0, ptr noundef readonly captures(none) %1, i32 noundef %2) local_unnamed_addr #1 {
  %4 = alloca [6 x i8], align 1
  call void @llvm.lifetime.start.p0(i64 6, ptr nonnull %4) #12
  %5 = icmp eq i32 %2, 3
  br i1 %5, label %6, label %20

6:                                                ; preds = %3
  %7 = getelementptr inbounds nuw i8, ptr %0, i64 608
  %8 = load i16, ptr %7, align 8, !tbaa !56
  %.not22 = icmp eq i16 %8, 0
  br i1 %.not22, label %9, label %14

9:                                                ; preds = %6
  %10 = getelementptr inbounds nuw i8, ptr %0, i64 1048
  %11 = load i32, ptr %10, align 8, !tbaa !42
  %12 = and i32 %11, 1
  %13 = icmp eq i32 %12, 0
  br i1 %13, label %14, label %._crit_edge

._crit_edge:                                      ; preds = %9
  %.pre = load i8, ptr %1, align 2, !tbaa !165
  br label %18

14:                                               ; preds = %9, %6
  %15 = load i8, ptr %1, align 2, !tbaa !165
  %16 = zext i8 %15 to i16
  %.not23 = icmp ugt i16 %8, %16
  br i1 %.not23, label %18, label %17

17:                                               ; preds = %14
  tail call void @png_warning(ptr noundef nonnull %0, ptr noundef nonnull @.str.25) #12
  br label %65

18:                                               ; preds = %._crit_edge, %14
  %19 = phi i8 [ %.pre, %._crit_edge ], [ %15, %14 ]
  store i8 %19, ptr %4, align 1, !tbaa !3
  call fastcc void @png_write_complete_chunk(ptr noundef nonnull %0, i32 noundef 1649100612, ptr noundef nonnull %4, i64 noundef 1)
  br label %65

20:                                               ; preds = %3
  %21 = and i32 %2, 2
  %.not = icmp eq i32 %21, 0
  br i1 %.not, label %51, label %22

22:                                               ; preds = %20
  %23 = getelementptr inbounds nuw i8, ptr %1, i64 2
  %24 = load i16, ptr %23, align 2, !tbaa !162
  %25 = lshr i16 %24, 8
  %26 = trunc nuw i16 %25 to i8
  store i8 %26, ptr %4, align 1, !tbaa !3
  %27 = trunc i16 %24 to i8
  %28 = getelementptr inbounds nuw i8, ptr %4, i64 1
  store i8 %27, ptr %28, align 1, !tbaa !3
  %29 = getelementptr inbounds nuw i8, ptr %4, i64 2
  %30 = getelementptr inbounds nuw i8, ptr %1, i64 4
  %31 = load i16, ptr %30, align 2, !tbaa !163
  %32 = lshr i16 %31, 8
  %33 = trunc nuw i16 %32 to i8
  store i8 %33, ptr %29, align 1, !tbaa !3
  %34 = trunc i16 %31 to i8
  %35 = getelementptr inbounds nuw i8, ptr %4, i64 3
  store i8 %34, ptr %35, align 1, !tbaa !3
  %36 = getelementptr inbounds nuw i8, ptr %4, i64 4
  %37 = getelementptr inbounds nuw i8, ptr %1, i64 6
  %38 = load i16, ptr %37, align 2, !tbaa !164
  %39 = lshr i16 %38, 8
  %40 = trunc nuw i16 %39 to i8
  store i8 %40, ptr %36, align 1, !tbaa !3
  %41 = trunc i16 %38 to i8
  %42 = getelementptr inbounds nuw i8, ptr %4, i64 5
  store i8 %41, ptr %42, align 1, !tbaa !3
  %43 = getelementptr inbounds nuw i8, ptr %0, i64 624
  %44 = load i8, ptr %43, align 8, !tbaa !43
  %45 = icmp eq i8 %44, 8
  br i1 %45, label %46, label %50

46:                                               ; preds = %22
  %47 = or i8 %33, %26
  %48 = or i8 %47, %40
  %.not21 = icmp eq i8 %48, 0
  br i1 %.not21, label %50, label %49

49:                                               ; preds = %46
  tail call void @png_warning(ptr noundef nonnull %0, ptr noundef nonnull @.str.26) #12
  br label %65

50:                                               ; preds = %46, %22
  call fastcc void @png_write_complete_chunk(ptr noundef nonnull %0, i32 noundef 1649100612, ptr noundef nonnull %4, i64 noundef 6)
  br label %65

51:                                               ; preds = %20
  %52 = getelementptr inbounds nuw i8, ptr %1, i64 8
  %53 = load i16, ptr %52, align 2, !tbaa !161
  %54 = zext i16 %53 to i32
  %55 = getelementptr inbounds nuw i8, ptr %0, i64 624
  %56 = load i8, ptr %55, align 8, !tbaa !43
  %57 = zext nneg i8 %56 to i32
  %58 = shl nuw i32 1, %57
  %.not20 = icmp sgt i32 %58, %54
  br i1 %.not20, label %60, label %59

59:                                               ; preds = %51
  tail call void @png_warning(ptr noundef nonnull %0, ptr noundef nonnull @.str.27) #12
  br label %65

60:                                               ; preds = %51
  %61 = lshr i16 %53, 8
  %62 = trunc nuw i16 %61 to i8
  store i8 %62, ptr %4, align 1, !tbaa !3
  %63 = trunc i16 %53 to i8
  %64 = getelementptr inbounds nuw i8, ptr %4, i64 1
  store i8 %63, ptr %64, align 1, !tbaa !3
  call fastcc void @png_write_complete_chunk(ptr noundef nonnull %0, i32 noundef 1649100612, ptr noundef nonnull %4, i64 noundef 2)
  br label %65

65:                                               ; preds = %18, %60, %50, %59, %49, %17
  call void @llvm.lifetime.end.p0(i64 6, ptr nonnull %4) #12
  ret void
}